target datalayout = "e-m:e-p270:32:32-p271:32:32-p272:64:64-i64:64-i128:128-f80:128-n8:16:32:64-S128"
target triple = "x86_64-pc-linux-gnu"

%struct.pmix_class_t = type { ptr, ptr, ptr, ptr, i32, i32, ptr, ptr, i64 }
%union.pthread_mutex_t = type { %struct.__pthread_mutex_s }
%struct.__pthread_mutex_s = type { i32, i32, i32, i32, i32, i16, i16, %struct.__pthread_internal_list }
%struct.__pthread_internal_list = type { ptr, ptr }
%struct.pmix_tma = type { ptr, ptr, ptr, ptr, ptr, ptr, ptr, ptr }
%struct.pmix_object_t = type { %union.pthread_mutex_t, ptr, i32, %struct.pmix_tma }
%struct.pmix_pointer_array_t = type { %struct.pmix_object_t, i32, i32, i32, i32, i32, ptr, ptr }

@opened_components = internal global i8 0, align 1
@prte_frameworks = external global [0 x ptr], align 8
@.str.10 = private unnamed_addr constant [21 x i8] c"pthread_mutex_lock()\00", align 1

; Function Attrs: inlinehint nounwind uwtable
define internal void @pmix_tma_free(ptr noundef %0, ptr noundef %1) #2 {
  %3 = alloca ptr, align 8
  %4 = alloca ptr, align 8
  store ptr %0, ptr %3, align 8, !tbaa !30
  store ptr %1, ptr %4, align 8, !tbaa !4
  %5 = load ptr, ptr %3, align 8, !tbaa !30
  %6 = icmp ne ptr null, %5
  br i1 %6, label %7, label %13

7:                                                ; preds = %2
  %8 = load ptr, ptr %3, align 8, !tbaa !30
  %9 = getelementptr inbounds nuw %struct.pmix_tma, ptr %8, i32 0, i32 5
  %10 = load ptr, ptr %9, align 8, !tbaa !58
  %11 = load ptr, ptr %3, align 8, !tbaa !30
  %12 = load ptr, ptr %4, align 8, !tbaa !4
  call void %10(ptr noundef %11, ptr noundef %12)
  br label %15

13:                                               ; preds = %2
  %14 = load ptr, ptr %4, align 8, !tbaa !4
  call void @free(ptr noundef %14) #11
  br label %15

15:                                               ; preds = %13, %7
  ret void
}

; Function Attrs: inlinehint nounwind uwtable
define internal void @pmix_obj_run_destructors(ptr noundef %0) #2 {
  %2 = alloca ptr, align 8
  %3 = alloca ptr, align 8
  store ptr %0, ptr %2, align 8, !tbaa !28
  call void @llvm.lifetime.start.p0(i64 8, ptr %3) #11
  %4 = load ptr, ptr %2, align 8, !tbaa !28
  %5 = getelementptr inbounds nuw %struct.pmix_object_t, ptr %4, i32 0, i32 1
  %6 = load ptr, ptr %5, align 8, !tbaa !26
  %7 = getelementptr inbounds nuw %struct.pmix_class_t, ptr %6, i32 0, i32 7
  %8 = load ptr, ptr %7, align 8, !tbaa !56
  store ptr %8, ptr %3, align 8, !tbaa !4
  br label %9

9:                                                ; preds = %13, %1
  %10 = load ptr, ptr %3, align 8, !tbaa !4
  %11 = load ptr, ptr %10, align 8, !tbaa !4
  %12 = icmp ne ptr null, %11
  br i1 %12, label %13, label %19

13:                                               ; preds = %9
  %14 = load ptr, ptr %3, align 8, !tbaa !4
  %15 = load ptr, ptr %14, align 8, !tbaa !4
  %16 = load ptr, ptr %2, align 8, !tbaa !28
  call void %15(ptr noundef %16)
  %17 = load ptr, ptr %3, align 8, !tbaa !4
  %18 = getelementptr inbounds nuw ptr, ptr %17, i32 1
  store ptr %18, ptr %3, align 8, !tbaa !4
  br label %9, !llvm.loop !57

19:                                               ; preds = %9
  call void @llvm.lifetime.end.p0(i64 8, ptr %3) #11
  ret void
}

; Function Attrs: alwaysinline nounwind uwtable
define internal i32 @pmix_obj_update(ptr noundef %0, i32 noundef %1) #4 {
  %3 = alloca ptr, align 8
  %4 = alloca i32, align 4
  %5 = alloca i32, align 4
  store ptr %0, ptr %3, align 8, !tbaa !28
  store i32 %1, ptr %4, align 4, !tbaa !22
  call void @llvm.lifetime.start.p0(i64 4, ptr %5) #11
  %6 = load ptr, ptr %3, align 8, !tbaa !28
  %7 = getelementptr inbounds nuw %struct.pmix_object_t, ptr %6, i32 0, i32 0
  %8 = call i32 @pthread_mutex_lock(ptr noundef %7) #11
  store i32 %8, ptr %5, align 4, !tbaa !22
  %9 = load i32, ptr %5, align 4, !tbaa !22
  %10 = icmp eq i32 %9, 35
  br i1 %10, label %11, label %14

11:                                               ; preds = %2
  %12 = load i32, ptr %5, align 4, !tbaa !22
  %13 = call ptr @__errno_location() #12
  store i32 %12, ptr %13, align 4, !tbaa !22
  call void @perror(ptr noundef @.str.10)
  call void @abort() #13
  unreachable

14:                                               ; preds = %2
  %15 = load i32, ptr %4, align 4, !tbaa !22
  %16 = load ptr, ptr %3, align 8, !tbaa !28
  %17 = getelementptr inbounds nuw %struct.pmix_object_t, ptr %16, i32 0, i32 2
  %18 = load i32, ptr %17, align 8, !tbaa !27
  %19 = add nsw i32 %18, %15
  store i32 %19, ptr %17, align 8, !tbaa !27
  store i32 %19, ptr %5, align 4, !tbaa !22
  %20 = load ptr, ptr %3, align 8, !tbaa !28
  %21 = getelementptr inbounds nuw %struct.pmix_object_t, ptr %20, i32 0, i32 0
  %22 = call i32 @pthread_mutex_unlock(ptr noundef %21) #11
  %23 = load i32, ptr %5, align 4, !tbaa !22
  call void @llvm.lifetime.end.p0(i64 4, ptr %5) #11
  ret i32 %23
}

; Function Attrs: inlinehint nounwind uwtable
define internal ptr @pmix_pointer_array_get_item(ptr noundef %0, i32 noundef %1) #2 {
  %3 = alloca ptr, align 8
  %4 = alloca ptr, align 8
  %5 = alloca i32, align 4
  %6 = alloca ptr, align 8
  %7 = alloca i32, align 4
  store ptr %0, ptr %4, align 8, !tbaa !44
  store i32 %1, ptr %5, align 4, !tbaa !22
  call void @llvm.lifetime.start.p0(i64 8, ptr %6) #11
  %8 = load i32, ptr %5, align 4, !tbaa !22
  %9 = icmp sgt i32 0, %8
  br i1 %9, label %16, label %10

10:                                               ; preds = %2
  %11 = load ptr, ptr %4, align 8, !tbaa !44
  %12 = getelementptr inbounds nuw %struct.pmix_pointer_array_t, ptr %11, i32 0, i32 3
  %13 = load i32, ptr %12, align 8, !tbaa !51
  %14 = load i32, ptr %5, align 4, !tbaa !22
  %15 = icmp sle i32 %13, %14
  br label %16

16:                                               ; preds = %10, %2
  %17 = phi i1 [ true, %2 ], [ %15, %10 ]
  %18 = xor i1 %17, true
  %19 = xor i1 %18, true
  %20 = zext i1 %19 to i32
  %21 = sext i32 %20 to i64
  %22 = call i64 @llvm.expect.i64(i64 %21, i64 0)
  %23 = icmp ne i64 %22, 0
  br i1 %23, label %24, label %25

24:                                               ; preds = %16
  store ptr null, ptr %3, align 8
  store i32 1, ptr %7, align 4
  br label %34

25:                                               ; preds = %16
  %26 = load ptr, ptr %4, align 8, !tbaa !44
  %27 = getelementptr inbounds nuw %struct.pmix_pointer_array_t, ptr %26, i32 0, i32 7
  %28 = load ptr, ptr %27, align 8, !tbaa !55
  %29 = load i32, ptr %5, align 4, !tbaa !22
  %30 = sext i32 %29 to i64
  %31 = getelementptr inbounds ptr, ptr %28, i64 %30
  %32 = load ptr, ptr %31, align 8, !tbaa !4
  store ptr %32, ptr %6, align 8, !tbaa !4
  %33 = load ptr, ptr %6, align 8, !tbaa !4
  store ptr %33, ptr %3, align 8
  store i32 1, ptr %7, align 4
  br label %34

34:                                               ; preds = %25, %24
  call void @llvm.lifetime.end.p0(i64 8, ptr %6) #11
  %35 = load ptr, ptr %3, align 8
  ret ptr %35
}

; Function Attrs: nounwind uwtable
define dso_local void @prte_info_components_close() #0 {
  %1 = alloca i32, align 4
  %2 = alloca ptr, align 8
  %3 = alloca i32, align 4
  %4 = alloca ptr, align 8
  call void @llvm.lifetime.start.p0(i64 4, ptr %1) #11
  call void @llvm.lifetime.start.p0(i64 8, ptr %2) #11
  %5 = load i8, ptr @opened_components, align 1, !tbaa !18, !range !20, !noundef !21
  %6 = trunc i8 %5 to i1
  br i1 %6, label %8, label %7

7:                                                ; preds = %0
  store i32 1, ptr %3, align 4
  br label %64

8:                                                ; preds = %0
  store i32 0, ptr %1, align 4, !tbaa !22
  br label %9

9:                                                ; preds = %21, %8
  %10 = load i32, ptr %1, align 4, !tbaa !22
  %11 = sext i32 %10 to i64
  %12 = getelementptr inbounds [0 x ptr], ptr @prte_frameworks, i64 0, i64 %11
  %13 = load ptr, ptr %12, align 8, !tbaa !48
  %14 = icmp ne ptr null, %13
  br i1 %14, label %15, label %24

15:                                               ; preds = %9
  %16 = load i32, ptr %1, align 4, !tbaa !22
  %17 = sext i32 %16 to i64
  %18 = getelementptr inbounds [0 x ptr], ptr @prte_frameworks, i64 0, i64 %17
  %19 = load ptr, ptr %18, align 8, !tbaa !48
  %20 = call i32 @pmix_mca_base_framework_close(ptr noundef %19)
  br label %21

21:                                               ; preds = %15
  %22 = load i32, ptr %1, align 4, !tbaa !22
  %23 = add nsw i32 %22, 1
  store i32 %23, ptr %1, align 4, !tbaa !22
  br label %9, !llvm.loop !50

24:                                               ; preds = %9
  store i32 0, ptr %1, align 4, !tbaa !22
  br label %25

25:                                               ; preds = %57, %24
  %26 = load i32, ptr %1, align 4, !tbaa !22
  %27 = load i32, ptr getelementptr inbounds nuw (%struct.pmix_pointer_array_t, ptr @prte_component_map, i32 0, i32 3), align 8, !tbaa !51
  %28 = icmp slt i32 %26, %27
  br i1 %28, label %29, label %60

29:                                               ; preds = %25
  %30 = load i32, ptr %1, align 4, !tbaa !22
  %31 = call ptr @pmix_pointer_array_get_item(ptr noundef @prte_component_map, i32 noundef %30)
  store ptr %31, ptr %2, align 8, !tbaa !4
  %32 = icmp ne ptr null, %31
  br i1 %32, label %33, label %56

33:                                               ; preds = %29
  br label %34

34:                                               ; preds = %33
  call void @llvm.lifetime.start.p0(i64 8, ptr %4) #11
  %35 = load ptr, ptr %2, align 8, !tbaa !4
  store ptr %35, ptr %4, align 8, !tbaa !28
  %36 = load ptr, ptr %4, align 8, !tbaa !28
  %37 = call i32 @pmix_obj_update(ptr noundef %36, i32 noundef -1)
  %38 = icmp eq i32 0, %37
  br i1 %38, label %39, label %53

39:                                               ; preds = %34
  %40 = load ptr, ptr %4, align 8, !tbaa !28
  call void @pmix_obj_run_destructors(ptr noundef %40)
  %41 = load ptr, ptr %4, align 8, !tbaa !28
  %42 = getelementptr inbounds nuw %struct.pmix_object_t, ptr %41, i32 0, i32 3
  %43 = getelementptr inbounds nuw %struct.pmix_tma, ptr %42, i32 0, i32 5
  %44 = load ptr, ptr %43, align 8, !tbaa !37
  %45 = icmp ne ptr null, %44
  br i1 %45, label %46, label %50

46:                                               ; preds = %39
  %47 = load ptr, ptr %4, align 8, !tbaa !28
  %48 = getelementptr inbounds nuw %struct.pmix_object_t, ptr %47, i32 0, i32 3
  %49 = load ptr, ptr %2, align 8, !tbaa !4
  call void @pmix_tma_free(ptr noundef %48, ptr noundef %49)
  br label %52

50:                                               ; preds = %39
  %51 = load ptr, ptr %2, align 8, !tbaa !4
  call void @free(ptr noundef %51) #11
  br label %52

52:                                               ; preds = %50, %46
  store ptr null, ptr %2, align 8, !tbaa !4
  br label %53

53:                                               ; preds = %52, %34
  call void @llvm.lifetime.end.p0(i64 8, ptr %4) #11
  br label %54

54:                                               ; preds = %53
  br label %55

55:                                               ; preds = %54
  br label %56

56:                                               ; preds = %55, %29
  br label %57

57:                                               ; preds = %56
  %58 = load i32, ptr %1, align 4, !tbaa !22
  %59 = add nsw i32 %58, 1
  store i32 %59, ptr %1, align 4, !tbaa !22
  br label %25, !llvm.loop !54

60:                                               ; preds = %25
  br label %61

61:                                               ; preds = %60
  call void @pmix_obj_run_destructors(ptr noundef @prte_component_map)
  br label %62

62:                                               ; preds = %61
  br label %63

63:                                               ; preds = %62
  store i8 0, ptr @opened_components, align 1, !tbaa !18
  store i32 0, ptr %3, align 4
  br label %64

64:                                               ; preds = %63, %7
  call void @llvm.lifetime.end.p0(i64 8, ptr %2) #11
  call void @llvm.lifetime.end.p0(i64 4, ptr %1) #11
  %65 = load i32, ptr %3, align 4
  switch i32 %65, label %67 [
    i32 0, label %66
    i32 1, label %66
  ]

66:                                               ; preds = %64, %64
  ret void

67:                                               ; preds = %64
  unreachable
}