; Function Attrs: nounwind uwtable
define dso_local void @prte_info_components_close() local_unnamed_addr #2 {
  %.b14 = load i1, ptr @opened_components, align 1
  br i1 %.b14, label %.preheader22, label %46

.preheader22:                                     ; preds = %0
  %1 = load ptr, ptr @prte_frameworks, align 8, !tbaa !29
  %.not23 = icmp eq ptr %1, null
  br i1 %.not23, label %.preheader, label %.lr.ph

.preheader:                                       ; preds = %.lr.ph, %.preheader22
  %2 = load i32, ptr getelementptr inbounds nuw (i8, ptr @prte_component_map, i64 128), align 8, !tbaa !39
  %3 = icmp sgt i32 %2, 0
  br i1 %3, label %pmix_pointer_array_get_item.exit, label %._crit_edge

.lr.ph:                                           ; preds = %.preheader22, %.lr.ph
  %indvars.iv = phi i64 [ %indvars.iv.next, %.lr.ph ], [ 0, %.preheader22 ]
  %4 = phi ptr [ %7, %.lr.ph ], [ %1, %.preheader22 ]
  %5 = tail call i32 @pmix_mca_base_framework_close(ptr noundef nonnull %4) #13
  %indvars.iv.next = add nuw nsw i64 %indvars.iv, 1
  %6 = getelementptr inbounds nuw [0 x ptr], ptr @prte_frameworks, i64 0, i64 %indvars.iv.next
  %7 = load ptr, ptr %6, align 8, !tbaa !29
  %.not = icmp eq ptr %7, null
  br i1 %.not, label %.preheader, label %.lr.ph, !llvm.loop !42

pmix_pointer_array_get_item.exit:                 ; preds = %.preheader, %35
  %indvars.iv27 = phi i64 [ %indvars.iv.next28, %35 ], [ 0, %.preheader ]
  %8 = load ptr, ptr getelementptr inbounds nuw (i8, ptr @prte_component_map, i64 152), align 8, !tbaa !43
  %9 = getelementptr inbounds nuw ptr, ptr %8, i64 %indvars.iv27
  %10 = load ptr, ptr %9, align 8, !tbaa !24
  %.not15 = icmp eq ptr %10, null
  br i1 %.not15, label %35, label %11

11:                                               ; preds = %pmix_pointer_array_get_item.exit
  %12 = tail call i32 @pthread_mutex_lock(ptr noundef nonnull %10) #13
  %13 = icmp eq i32 %12, 35
  br i1 %13, label %14, label %pmix_obj_update.exit

14:                                               ; preds = %11
  %15 = tail call ptr @__errno_location() #17
  store i32 35, ptr %15, align 4, !tbaa !17
  tail call void @perror(ptr noundef nonnull @.str.10) #14
  tail call void @abort() #18
  unreachable

pmix_obj_update.exit:                             ; preds = %11
  %16 = getelementptr inbounds nuw i8, ptr %10, i64 48
  %17 = load i32, ptr %16, align 8, !tbaa !22
  %18 = add nsw i32 %17, -1
  store i32 %18, ptr %16, align 8, !tbaa !22
  %19 = tail call i32 @pthread_mutex_unlock(ptr noundef nonnull %10) #13
  %20 = icmp eq i32 %18, 0
  br i1 %20, label %21, label %35

21:                                               ; preds = %pmix_obj_update.exit
  %22 = getelementptr inbounds nuw i8, ptr %10, i64 40
  %23 = load ptr, ptr %22, align 8, !tbaa !21
  %24 = getelementptr inbounds nuw i8, ptr %23, i64 48
  %25 = load ptr, ptr %24, align 8, !tbaa !44
  %26 = load ptr, ptr %25, align 8, !tbaa !24
  %.not6.i = icmp eq ptr %26, null
  br i1 %.not6.i, label %pmix_obj_run_destructors.exit, label %.lr.ph.i

.lr.ph.i:                                         ; preds = %21, %.lr.ph.i
  %27 = phi ptr [ %29, %.lr.ph.i ], [ %26, %21 ]
  %.07.i = phi ptr [ %28, %.lr.ph.i ], [ %25, %21 ]
  tail call void %27(ptr noundef nonnull %10) #13
  %28 = getelementptr inbounds nuw i8, ptr %.07.i, i64 8
  %29 = load ptr, ptr %28, align 8, !tbaa !24
  %.not.i = icmp eq ptr %29, null
  br i1 %.not.i, label %pmix_obj_run_destructors.exit, label %.lr.ph.i, !llvm.loop !45

pmix_obj_run_destructors.exit:                    ; preds = %.lr.ph.i, %21
  %30 = getelementptr inbounds nuw i8, ptr %10, i64 96
  %31 = load ptr, ptr %30, align 8, !tbaa !46
  %.not16 = icmp eq ptr %31, null
  br i1 %.not16, label %34, label %32

32:                                               ; preds = %pmix_obj_run_destructors.exit
  %33 = getelementptr inbounds nuw i8, ptr %10, i64 56
  tail call void %31(ptr noundef nonnull %33, ptr noundef nonnull %10) #13
  br label %35

34:                                               ; preds = %pmix_obj_run_destructors.exit
  tail call void @free(ptr noundef nonnull %10) #13
  br label %35

35:                                               ; preds = %pmix_obj_update.exit, %34, %32, %pmix_pointer_array_get_item.exit
  %indvars.iv.next28 = add nuw nsw i64 %indvars.iv27, 1
  %36 = load i32, ptr getelementptr inbounds nuw (i8, ptr @prte_component_map, i64 128), align 8, !tbaa !39
  %37 = sext i32 %36 to i64
  %38 = icmp slt i64 %indvars.iv.next28, %37
  br i1 %38, label %pmix_pointer_array_get_item.exit, label %._crit_edge, !llvm.loop !47

._crit_edge:                                      ; preds = %35, %.preheader
  %39 = load ptr, ptr getelementptr inbounds nuw (i8, ptr @prte_component_map, i64 40), align 8, !tbaa !21
  %40 = getelementptr inbounds nuw i8, ptr %39, i64 48
  %41 = load ptr, ptr %40, align 8, !tbaa !44
  %42 = load ptr, ptr %41, align 8, !tbaa !24
  %.not6.i17 = icmp eq ptr %42, null
  br i1 %.not6.i17, label %pmix_obj_run_destructors.exit21, label %.lr.ph.i18

.lr.ph.i18:                                       ; preds = %._crit_edge, %.lr.ph.i18
  %43 = phi ptr [ %45, %.lr.ph.i18 ], [ %42, %._crit_edge ]
  %.07.i19 = phi ptr [ %44, %.lr.ph.i18 ], [ %41, %._crit_edge ]
  tail call void %43(ptr noundef nonnull @prte_component_map) #13
  %44 = getelementptr inbounds nuw i8, ptr %.07.i19, i64 8
  %45 = load ptr, ptr %44, align 8, !tbaa !24
  %.not.i20 = icmp eq ptr %45, null
  br i1 %.not.i20, label %pmix_obj_run_destructors.exit21, label %.lr.ph.i18, !llvm.loop !45

pmix_obj_run_destructors.exit21:                  ; preds = %.lr.ph.i18, %._crit_edge
  store i1 false, ptr @opened_components, align 1
  br label %46

46:                                               ; preds = %0, %pmix_obj_run_destructors.exit21
  ret void
}